target datalayout = "e-m:e-p270:32:32-p271:32:32-p272:64:64-i64:64-i128:128-f80:128-n8:16:32:64-S128"
target triple = "x86_64-pc-linux-gnu"

%struct.AVFilterContext = type { ptr, ptr, ptr, ptr, ptr, i32, ptr, ptr, i32, ptr, ptr, i32, i32, ptr, ptr, ptr, ptr, i32, ptr, i32, i32 }
%struct.TonemapContext = type { ptr, i32, double, double, double, ptr }

; Function Attrs: cold nounwind optsize uwtable
define internal i32 @init(ptr noundef %0) #0 {
  %2 = alloca ptr, align 8
  %3 = alloca ptr, align 8
  store ptr %0, ptr %2, align 8, !tbaa !4
  call void @llvm.lifetime.start.p0(i64 8, ptr %3) #9
  %4 = load ptr, ptr %2, align 8, !tbaa !4
  %5 = getelementptr inbounds nuw %struct.AVFilterContext, ptr %4, i32 0, i32 9
  %6 = load ptr, ptr %5, align 8, !tbaa !9
  store ptr %6, ptr %3, align 8, !tbaa !22
  %7 = load ptr, ptr %3, align 8, !tbaa !22
  %8 = getelementptr inbounds nuw %struct.TonemapContext, ptr %7, i32 0, i32 1
  %9 = load i32, ptr %8, align 8, !tbaa !24
  switch i32 %9, label %45 [
    i32 2, label %10
    i32 4, label %19
    i32 6, label %36
  ]

10:                                               ; preds = %1
  %11 = load ptr, ptr %3, align 8, !tbaa !22
  %12 = getelementptr inbounds nuw %struct.TonemapContext, ptr %11, i32 0, i32 2
  %13 = load double, ptr %12, align 8, !tbaa !28
  %14 = call i1 @llvm.is.fpclass.f64(double %13, i32 3)
  br i1 %14, label %15, label %18

15:                                               ; preds = %10
  %16 = load ptr, ptr %3, align 8, !tbaa !22
  %17 = getelementptr inbounds nuw %struct.TonemapContext, ptr %16, i32 0, i32 2
  store double 0x3FFCCCCCC0000000, ptr %17, align 8, !tbaa !28
  br label %18

18:                                               ; preds = %15, %10
  br label %45

19:                                               ; preds = %1
  %20 = load ptr, ptr %3, align 8, !tbaa !22
  %21 = getelementptr inbounds nuw %struct.TonemapContext, ptr %20, i32 0, i32 2
  %22 = load double, ptr %21, align 8, !tbaa !28
  %23 = call i1 @llvm.is.fpclass.f64(double %22, i32 3)
  br i1 %23, label %35, label %24

24:                                               ; preds = %19
  %25 = load ptr, ptr %3, align 8, !tbaa !22
  %26 = getelementptr inbounds nuw %struct.TonemapContext, ptr %25, i32 0, i32 2
  %27 = load double, ptr %26, align 8, !tbaa !28
  %28 = fsub nsz double 1.000000e+00, %27
  %29 = load ptr, ptr %3, align 8, !tbaa !22
  %30 = getelementptr inbounds nuw %struct.TonemapContext, ptr %29, i32 0, i32 2
  %31 = load double, ptr %30, align 8, !tbaa !28
  %32 = fdiv nsz double %28, %31
  %33 = load ptr, ptr %3, align 8, !tbaa !22
  %34 = getelementptr inbounds nuw %struct.TonemapContext, ptr %33, i32 0, i32 2
  store double %32, ptr %34, align 8, !tbaa !28
  br label %35

35:                                               ; preds = %24, %19
  br label %45

36:                                               ; preds = %1
  %37 = load ptr, ptr %3, align 8, !tbaa !22
  %38 = getelementptr inbounds nuw %struct.TonemapContext, ptr %37, i32 0, i32 2
  %39 = load double, ptr %38, align 8, !tbaa !28
  %40 = call i1 @llvm.is.fpclass.f64(double %39, i32 3)
  br i1 %40, label %41, label %44

41:                                               ; preds = %36
  %42 = load ptr, ptr %3, align 8, !tbaa !22
  %43 = getelementptr inbounds nuw %struct.TonemapContext, ptr %42, i32 0, i32 2
  store double 0x3FD3333340000000, ptr %43, align 8, !tbaa !28
  br label %44

44:                                               ; preds = %41, %36
  br label %45

45:                                               ; preds = %1, %44, %35, %18
  %46 = load ptr, ptr %3, align 8, !tbaa !22
  %47 = getelementptr inbounds nuw %struct.TonemapContext, ptr %46, i32 0, i32 2
  %48 = load double, ptr %47, align 8, !tbaa !28
  %49 = call i1 @llvm.is.fpclass.f64(double %48, i32 3)
  br i1 %49, label %50, label %53

50:                                               ; preds = %45
  %51 = load ptr, ptr %3, align 8, !tbaa !22
  %52 = getelementptr inbounds nuw %struct.TonemapContext, ptr %51, i32 0, i32 2
  store double 1.000000e+00, ptr %52, align 8, !tbaa !28
  br label %53

53:                                               ; preds = %50, %45
  call void @llvm.lifetime.end.p0(i64 8, ptr %3) #9
  ret i32 0
}