; Function Attrs: cold mustprogress nofree norecurse nosync nounwind optsize willreturn memory(readwrite, inaccessiblemem: none) uwtable
define internal noundef i32 @init(ptr noundef readonly captures(none) %0) #0 {
  %2 = getelementptr inbounds nuw i8, ptr %0, i64 72
  %3 = load ptr, ptr %2, align 8, !tbaa !4
  %4 = getelementptr inbounds nuw i8, ptr %3, i64 8
  %5 = load i32, ptr %4, align 8, !tbaa !20
  %.phi.trans.insert = getelementptr inbounds nuw i8, ptr %3, i64 16
  %.pre = load double, ptr %.phi.trans.insert, align 8, !tbaa !24
  switch i32 %5, label %._crit_edge [
    i32 2, label %6
    i32 4, label %9
    i32 6, label %14
  ]

6:                                                ; preds = %1
  %7 = fcmp uno double %.pre, 0.000000e+00
  br i1 %7, label %8, label %._crit_edge

8:                                                ; preds = %6
  store double 0x3FFCCCCCC0000000, ptr %.phi.trans.insert, align 8, !tbaa !24
  br label %.thread

9:                                                ; preds = %1
  %10 = fcmp uno double %.pre, 0.000000e+00
  br i1 %10, label %._crit_edge, label %11

11:                                               ; preds = %9
  %12 = fsub nsz double 1.000000e+00, %.pre
  %13 = fdiv nsz double %12, %.pre
  store double %13, ptr %.phi.trans.insert, align 8, !tbaa !24
  br label %._crit_edge

14:                                               ; preds = %1
  %15 = fcmp uno double %.pre, 0.000000e+00
  br i1 %15, label %16, label %._crit_edge

16:                                               ; preds = %14
  store double 0x3FD3333340000000, ptr %.phi.trans.insert, align 8, !tbaa !24
  br label %.thread

._crit_edge:                                      ; preds = %1, %14, %9, %11, %6
  %17 = phi double [ %.pre, %14 ], [ %.pre, %9 ], [ %13, %11 ], [ %.pre, %6 ], [ %.pre, %1 ]
  %18 = fcmp uno double %17, 0.000000e+00
  br i1 %18, label %19, label %.thread

19:                                               ; preds = %._crit_edge
  %20 = getelementptr inbounds nuw i8, ptr %3, i64 16
  store double 1.000000e+00, ptr %20, align 8, !tbaa !24
  br label %.thread

.thread:                                          ; preds = %8, %16, %19, %._crit_edge
  ret i32 0
}